target datalayout = "e-m:e-p270:32:32-p271:32:32-p272:64:64-i64:64-i128:128-f80:128-n8:16:32:64-S128"
target triple = "x86_64-pc-linux-gnu"

@s_Truths6Neg = internal global [6 x i64] [i64 6148914691236517205, i64 3689348814741910323, i64 1085102592571150095, i64 71777214294589695, i64 281470681808895, i64 4294967295], align 16
@s_Truths6 = internal global [6 x i64] [i64 -6148914691236517206, i64 -3689348814741910324, i64 -1085102592571150096, i64 -71777214294589696, i64 -281470681808896, i64 -4294967296], align 16

; Function Attrs: inlinehint nounwind uwtable
define internal i32 @Abc_Var2Lit(i32 noundef %0, i32 noundef %1) #2 {
  %3 = alloca i32, align 4
  %4 = alloca i32, align 4
  store i32 %0, ptr %3, align 4, !tbaa !10
  store i32 %1, ptr %4, align 4, !tbaa !10
  %5 = load i32, ptr %3, align 4, !tbaa !10
  %6 = load i32, ptr %3, align 4, !tbaa !10
  %7 = add nsw i32 %5, %6
  %8 = load i32, ptr %4, align 4, !tbaa !10
  %9 = add nsw i32 %7, %8
  ret i32 %9
}

; Function Attrs: inlinehint nounwind uwtable
define internal void @Abc_IsopAddLits(ptr noundef %0, i64 noundef %1, i64 noundef %2, i32 noundef %3) #2 {
  %5 = alloca ptr, align 8
  %6 = alloca i64, align 8
  %7 = alloca i64, align 8
  %8 = alloca i32, align 4
  %9 = alloca i32, align 4
  %10 = alloca i32, align 4
  %11 = alloca i32, align 4
  store ptr %0, ptr %5, align 8, !tbaa !12
  store i64 %1, ptr %6, align 8, !tbaa !3
  store i64 %2, ptr %7, align 8, !tbaa !3
  store i32 %3, ptr %8, align 4, !tbaa !10
  %12 = load ptr, ptr %5, align 8, !tbaa !12
  %13 = icmp ne ptr %12, null
  br i1 %13, label %14, label %57

14:                                               ; preds = %4
  call void @llvm.lifetime.start.p0(i64 4, ptr %9) #9
  call void @llvm.lifetime.start.p0(i64 4, ptr %10) #9
  call void @llvm.lifetime.start.p0(i64 4, ptr %11) #9
  %15 = load i64, ptr %6, align 8, !tbaa !3
  %16 = call i32 @Abc_CostCubes(i64 noundef %15)
  store i32 %16, ptr %10, align 4, !tbaa !10
  %17 = load i64, ptr %7, align 8, !tbaa !3
  %18 = call i32 @Abc_CostCubes(i64 noundef %17)
  store i32 %18, ptr %11, align 4, !tbaa !10
  store i32 0, ptr %9, align 4, !tbaa !10
  br label %19

19:                                               ; preds = %33, %14
  %20 = load i32, ptr %9, align 4, !tbaa !10
  %21 = load i32, ptr %10, align 4, !tbaa !10
  %22 = icmp slt i32 %20, %21
  br i1 %22, label %23, label %36

23:                                               ; preds = %19
  %24 = load i32, ptr %8, align 4, !tbaa !10
  %25 = call i32 @Abc_Var2Lit(i32 noundef %24, i32 noundef 0)
  %26 = shl i32 1, %25
  %27 = load ptr, ptr %5, align 8, !tbaa !12
  %28 = load i32, ptr %9, align 4, !tbaa !10
  %29 = sext i32 %28 to i64
  %30 = getelementptr inbounds i32, ptr %27, i64 %29
  %31 = load i32, ptr %30, align 4, !tbaa !10
  %32 = or i32 %31, %26
  store i32 %32, ptr %30, align 4, !tbaa !10
  br label %33

33:                                               ; preds = %23
  %34 = load i32, ptr %9, align 4, !tbaa !10
  %35 = add nsw i32 %34, 1
  store i32 %35, ptr %9, align 4, !tbaa !10
  br label %19, !llvm.loop !16

36:                                               ; preds = %19
  store i32 0, ptr %9, align 4, !tbaa !10
  br label %37

37:                                               ; preds = %53, %36
  %38 = load i32, ptr %9, align 4, !tbaa !10
  %39 = load i32, ptr %11, align 4, !tbaa !10
  %40 = icmp slt i32 %38, %39
  br i1 %40, label %41, label %56

41:                                               ; preds = %37
  %42 = load i32, ptr %8, align 4, !tbaa !10
  %43 = call i32 @Abc_Var2Lit(i32 noundef %42, i32 noundef 1)
  %44 = shl i32 1, %43
  %45 = load ptr, ptr %5, align 8, !tbaa !12
  %46 = load i32, ptr %10, align 4, !tbaa !10
  %47 = load i32, ptr %9, align 4, !tbaa !10
  %48 = add nsw i32 %46, %47
  %49 = sext i32 %48 to i64
  %50 = getelementptr inbounds i32, ptr %45, i64 %49
  %51 = load i32, ptr %50, align 4, !tbaa !10
  %52 = or i32 %51, %44
  store i32 %52, ptr %50, align 4, !tbaa !10
  br label %53

53:                                               ; preds = %41
  %54 = load i32, ptr %9, align 4, !tbaa !10
  %55 = add nsw i32 %54, 1
  store i32 %55, ptr %9, align 4, !tbaa !10
  br label %37, !llvm.loop !17

56:                                               ; preds = %37
  call void @llvm.lifetime.end.p0(i64 4, ptr %11) #9
  call void @llvm.lifetime.end.p0(i64 4, ptr %10) #9
  call void @llvm.lifetime.end.p0(i64 4, ptr %9) #9
  br label %57

57:                                               ; preds = %56, %4
  ret void
}

; Function Attrs: inlinehint nounwind uwtable
define internal i32 @Abc_CostCubes(i64 noundef %0) #2 {
  %2 = alloca i64, align 8
  store i64 %0, ptr %2, align 8, !tbaa !3
  %3 = load i64, ptr %2, align 8, !tbaa !3
  %4 = lshr i64 %3, 32
  %5 = trunc i64 %4 to i32
  ret i32 %5
}

; Function Attrs: inlinehint nounwind uwtable
define internal i64 @Abc_Tt6Cofactor1(i64 noundef %0, i32 noundef %1) #2 {
  %3 = alloca i64, align 8
  %4 = alloca i32, align 4
  store i64 %0, ptr %3, align 8, !tbaa !3
  store i32 %1, ptr %4, align 4, !tbaa !10
  %5 = load i64, ptr %3, align 8, !tbaa !3
  %6 = load i32, ptr %4, align 4, !tbaa !10
  %7 = sext i32 %6 to i64
  %8 = getelementptr inbounds [6 x i64], ptr @s_Truths6, i64 0, i64 %7
  %9 = load i64, ptr %8, align 8, !tbaa !3
  %10 = and i64 %5, %9
  %11 = load i64, ptr %3, align 8, !tbaa !3
  %12 = load i32, ptr %4, align 4, !tbaa !10
  %13 = sext i32 %12 to i64
  %14 = getelementptr inbounds [6 x i64], ptr @s_Truths6, i64 0, i64 %13
  %15 = load i64, ptr %14, align 8, !tbaa !3
  %16 = and i64 %11, %15
  %17 = load i32, ptr %4, align 4, !tbaa !10
  %18 = shl i32 1, %17
  %19 = zext i32 %18 to i64
  %20 = lshr i64 %16, %19
  %21 = or i64 %10, %20
  ret i64 %21
}

; Function Attrs: inlinehint nounwind uwtable
define internal i64 @Abc_Tt6Cofactor0(i64 noundef %0, i32 noundef %1) #2 {
  %3 = alloca i64, align 8
  %4 = alloca i32, align 4
  store i64 %0, ptr %3, align 8, !tbaa !3
  store i32 %1, ptr %4, align 4, !tbaa !10
  %5 = load i64, ptr %3, align 8, !tbaa !3
  %6 = load i32, ptr %4, align 4, !tbaa !10
  %7 = sext i32 %6 to i64
  %8 = getelementptr inbounds [6 x i64], ptr @s_Truths6Neg, i64 0, i64 %7
  %9 = load i64, ptr %8, align 8, !tbaa !3
  %10 = and i64 %5, %9
  %11 = load i64, ptr %3, align 8, !tbaa !3
  %12 = load i32, ptr %4, align 4, !tbaa !10
  %13 = sext i32 %12 to i64
  %14 = getelementptr inbounds [6 x i64], ptr @s_Truths6Neg, i64 0, i64 %13
  %15 = load i64, ptr %14, align 8, !tbaa !3
  %16 = and i64 %11, %15
  %17 = load i32, ptr %4, align 4, !tbaa !10
  %18 = shl i32 1, %17
  %19 = zext i32 %18 to i64
  %20 = shl i64 %16, %19
  %21 = or i64 %10, %20
  ret i64 %21
}

; Function Attrs: inlinehint nounwind uwtable
define internal i32 @Abc_Tt6HasVar(i64 noundef %0, i32 noundef %1) #2 {
  %3 = alloca i64, align 8
  %4 = alloca i32, align 4
  store i64 %0, ptr %3, align 8, !tbaa !3
  store i32 %1, ptr %4, align 4, !tbaa !10
  %5 = load i64, ptr %3, align 8, !tbaa !3
  %6 = load i32, ptr %4, align 4, !tbaa !10
  %7 = shl i32 1, %6
  %8 = zext i32 %7 to i64
  %9 = lshr i64 %5, %8
  %10 = load i32, ptr %4, align 4, !tbaa !10
  %11 = sext i32 %10 to i64
  %12 = getelementptr inbounds [6 x i64], ptr @s_Truths6Neg, i64 0, i64 %11
  %13 = load i64, ptr %12, align 8, !tbaa !3
  %14 = and i64 %9, %13
  %15 = load i64, ptr %3, align 8, !tbaa !3
  %16 = load i32, ptr %4, align 4, !tbaa !10
  %17 = sext i32 %16 to i64
  %18 = getelementptr inbounds [6 x i64], ptr @s_Truths6Neg, i64 0, i64 %17
  %19 = load i64, ptr %18, align 8, !tbaa !3
  %20 = and i64 %15, %19
  %21 = icmp ne i64 %14, %20
  %22 = zext i1 %21 to i32
  ret i32 %22
}

; Function Attrs: inlinehint nounwind uwtable
define internal i64 @Abc_Cube2Cost(i32 noundef %0) #2 {
  %2 = alloca i32, align 4
  store i32 %0, ptr %2, align 4, !tbaa !10
  %3 = load i32, ptr %2, align 4, !tbaa !10
  %4 = sext i32 %3 to i64
  %5 = shl i64 %4, 32
  ret i64 %5
}

; Function Attrs: nounwind uwtable
define i64 @Abc_Isop6Cover(i64 noundef %0, i64 noundef %1, ptr noundef %2, i32 noundef %3, i64 noundef %4, ptr noundef %5) #0 {
  %7 = alloca i64, align 8
  %8 = alloca i64, align 8
  %9 = alloca i64, align 8
  %10 = alloca ptr, align 8
  %11 = alloca i32, align 4
  %12 = alloca i64, align 8
  %13 = alloca ptr, align 8
  %14 = alloca i64, align 8
  %15 = alloca i64, align 8
  %16 = alloca i64, align 8
  %17 = alloca i64, align 8
  %18 = alloca i64, align 8
  %19 = alloca i64, align 8
  %20 = alloca i64, align 8
  %21 = alloca i64, align 8
  %22 = alloca i64, align 8
  %23 = alloca i64, align 8
  %24 = alloca i32, align 4
  %25 = alloca i32, align 4
  store i64 %0, ptr %8, align 8, !tbaa !3
  store i64 %1, ptr %9, align 8, !tbaa !3
  store ptr %2, ptr %10, align 8, !tbaa !7
  store i32 %3, ptr %11, align 4, !tbaa !10
  store i64 %4, ptr %12, align 8, !tbaa !3
  store ptr %5, ptr %13, align 8, !tbaa !12
  call void @llvm.lifetime.start.p0(i64 8, ptr %14) #9
  call void @llvm.lifetime.start.p0(i64 8, ptr %15) #9
  call void @llvm.lifetime.start.p0(i64 8, ptr %16) #9
  call void @llvm.lifetime.start.p0(i64 8, ptr %17) #9
  call void @llvm.lifetime.start.p0(i64 8, ptr %18) #9
  call void @llvm.lifetime.start.p0(i64 8, ptr %19) #9
  call void @llvm.lifetime.start.p0(i64 8, ptr %20) #9
  call void @llvm.lifetime.start.p0(i64 8, ptr %21) #9
  call void @llvm.lifetime.start.p0(i64 8, ptr %22) #9
  call void @llvm.lifetime.start.p0(i64 8, ptr %23) #9
  call void @llvm.lifetime.start.p0(i64 4, ptr %24) #9
  %26 = load i64, ptr %8, align 8, !tbaa !3
  %27 = icmp eq i64 %26, 0
  br i1 %27, label %28, label %31

28:                                               ; preds = %6
  %29 = load ptr, ptr %10, align 8, !tbaa !7
  %30 = getelementptr inbounds i64, ptr %29, i64 0
  store i64 0, ptr %30, align 8, !tbaa !3
  store i64 0, ptr %7, align 8
  store i32 1, ptr %25, align 4
  br label %193

31:                                               ; preds = %6
  %32 = load i64, ptr %9, align 8, !tbaa !3
  %33 = icmp eq i64 %32, -1
  br i1 %33, label %34, label %44

34:                                               ; preds = %31
  %35 = load ptr, ptr %10, align 8, !tbaa !7
  %36 = getelementptr inbounds i64, ptr %35, i64 0
  store i64 -1, ptr %36, align 8, !tbaa !3
  %37 = load ptr, ptr %13, align 8, !tbaa !12
  %38 = icmp ne ptr %37, null
  br i1 %38, label %39, label %42

39:                                               ; preds = %34
  %40 = load ptr, ptr %13, align 8, !tbaa !12
  %41 = getelementptr inbounds i32, ptr %40, i64 0
  store i32 0, ptr %41, align 4, !tbaa !10
  br label %42

42:                                               ; preds = %39, %34
  %43 = call i64 @Abc_Cube2Cost(i32 noundef 1)
  store i64 %43, ptr %7, align 8
  store i32 1, ptr %25, align 4
  br label %193

44:                                               ; preds = %31
  %45 = load i32, ptr %11, align 4, !tbaa !10
  %46 = sub nsw i32 %45, 1
  store i32 %46, ptr %24, align 4, !tbaa !10
  br label %47

47:                                               ; preds = %62, %44
  %48 = load i32, ptr %24, align 4, !tbaa !10
  %49 = icmp sge i32 %48, 0
  br i1 %49, label %50, label %65

50:                                               ; preds = %47
  %51 = load i64, ptr %8, align 8, !tbaa !3
  %52 = load i32, ptr %24, align 4, !tbaa !10
  %53 = call i32 @Abc_Tt6HasVar(i64 noundef %51, i32 noundef %52)
  %54 = icmp ne i32 %53, 0
  br i1 %54, label %60, label %55

55:                                               ; preds = %50
  %56 = load i64, ptr %9, align 8, !tbaa !3
  %57 = load i32, ptr %24, align 4, !tbaa !10
  %58 = call i32 @Abc_Tt6HasVar(i64 noundef %56, i32 noundef %57)
  %59 = icmp ne i32 %58, 0
  br i1 %59, label %60, label %61

60:                                               ; preds = %55, %50
  br label %65

61:                                               ; preds = %55
  br label %62

62:                                               ; preds = %61
  %63 = load i32, ptr %24, align 4, !tbaa !10
  %64 = add nsw i32 %63, -1
  store i32 %64, ptr %24, align 4, !tbaa !10
  br label %47, !llvm.loop !14

65:                                               ; preds = %60, %47
  %66 = load i64, ptr %8, align 8, !tbaa !3
  %67 = load i32, ptr %24, align 4, !tbaa !10
  %68 = call i64 @Abc_Tt6Cofactor0(i64 noundef %66, i32 noundef %67)
  store i64 %68, ptr %14, align 8, !tbaa !3
  %69 = load i64, ptr %8, align 8, !tbaa !3
  %70 = load i32, ptr %24, align 4, !tbaa !10
  %71 = call i64 @Abc_Tt6Cofactor1(i64 noundef %69, i32 noundef %70)
  store i64 %71, ptr %15, align 8, !tbaa !3
  %72 = load i64, ptr %9, align 8, !tbaa !3
  %73 = load i32, ptr %24, align 4, !tbaa !10
  %74 = call i64 @Abc_Tt6Cofactor0(i64 noundef %72, i32 noundef %73)
  store i64 %74, ptr %16, align 8, !tbaa !3
  %75 = load i64, ptr %9, align 8, !tbaa !3
  %76 = load i32, ptr %24, align 4, !tbaa !10
  %77 = call i64 @Abc_Tt6Cofactor1(i64 noundef %75, i32 noundef %76)
  store i64 %77, ptr %17, align 8, !tbaa !3
  %78 = load i64, ptr %14, align 8, !tbaa !3
  %79 = load i64, ptr %17, align 8, !tbaa !3
  %80 = xor i64 %79, -1
  %81 = and i64 %78, %80
  %82 = load i64, ptr %16, align 8, !tbaa !3
  %83 = load i32, ptr %24, align 4, !tbaa !10
  %84 = load i64, ptr %12, align 8, !tbaa !3
  %85 = load ptr, ptr %13, align 8, !tbaa !12
  %86 = call i64 @Abc_Isop6Cover(i64 noundef %81, i64 noundef %82, ptr noundef %18, i32 noundef %83, i64 noundef %84, ptr noundef %85)
  store i64 %86, ptr %21, align 8, !tbaa !3
  %87 = load i64, ptr %21, align 8, !tbaa !3
  %88 = load i64, ptr %12, align 8, !tbaa !3
  %89 = icmp uge i64 %87, %88
  br i1 %89, label %90, label %92

90:                                               ; preds = %65
  %91 = load i64, ptr %12, align 8, !tbaa !3
  store i64 %91, ptr %7, align 8
  store i32 1, ptr %25, align 4
  br label %193

92:                                               ; preds = %65
  %93 = load i64, ptr %15, align 8, !tbaa !3
  %94 = load i64, ptr %16, align 8, !tbaa !3
  %95 = xor i64 %94, -1
  %96 = and i64 %93, %95
  %97 = load i64, ptr %17, align 8, !tbaa !3
  %98 = load i32, ptr %24, align 4, !tbaa !10
  %99 = load i64, ptr %12, align 8, !tbaa !3
  %100 = load ptr, ptr %13, align 8, !tbaa !12
  %101 = icmp ne ptr %100, null
  br i1 %101, label %102, label %108

102:                                              ; preds = %92
  %103 = load ptr, ptr %13, align 8, !tbaa !12
  %104 = load i64, ptr %21, align 8, !tbaa !3
  %105 = call i32 @Abc_CostCubes(i64 noundef %104)
  %106 = sext i32 %105 to i64
  %107 = getelementptr inbounds i32, ptr %103, i64 %106
  br label %109

108:                                              ; preds = %92
  br label %109

109:                                              ; preds = %108, %102
  %110 = phi ptr [ %107, %102 ], [ null, %108 ]
  %111 = call i64 @Abc_Isop6Cover(i64 noundef %96, i64 noundef %97, ptr noundef %19, i32 noundef %98, i64 noundef %99, ptr noundef %110)
  store i64 %111, ptr %22, align 8, !tbaa !3
  %112 = load i64, ptr %21, align 8, !tbaa !3
  %113 = load i64, ptr %22, align 8, !tbaa !3
  %114 = add i64 %112, %113
  %115 = load i64, ptr %12, align 8, !tbaa !3
  %116 = icmp uge i64 %114, %115
  br i1 %116, label %117, label %119

117:                                              ; preds = %109
  %118 = load i64, ptr %12, align 8, !tbaa !3
  store i64 %118, ptr %7, align 8
  store i32 1, ptr %25, align 4
  br label %193

119:                                              ; preds = %109
  %120 = load i64, ptr %14, align 8, !tbaa !3
  %121 = load i64, ptr %18, align 8, !tbaa !3
  %122 = xor i64 %121, -1
  %123 = and i64 %120, %122
  %124 = load i64, ptr %15, align 8, !tbaa !3
  %125 = load i64, ptr %19, align 8, !tbaa !3
  %126 = xor i64 %125, -1
  %127 = and i64 %124, %126
  %128 = or i64 %123, %127
  %129 = load i64, ptr %16, align 8, !tbaa !3
  %130 = load i64, ptr %17, align 8, !tbaa !3
  %131 = and i64 %129, %130
  %132 = load i32, ptr %24, align 4, !tbaa !10
  %133 = load i64, ptr %12, align 8, !tbaa !3
  %134 = load ptr, ptr %13, align 8, !tbaa !12
  %135 = icmp ne ptr %134, null
  br i1 %135, label %136, label %146

136:                                              ; preds = %119
  %137 = load ptr, ptr %13, align 8, !tbaa !12
  %138 = load i64, ptr %21, align 8, !tbaa !3
  %139 = call i32 @Abc_CostCubes(i64 noundef %138)
  %140 = sext i32 %139 to i64
  %141 = getelementptr inbounds i32, ptr %137, i64 %140
  %142 = load i64, ptr %22, align 8, !tbaa !3
  %143 = call i32 @Abc_CostCubes(i64 noundef %142)
  %144 = sext i32 %143 to i64
  %145 = getelementptr inbounds i32, ptr %141, i64 %144
  br label %147

146:                                              ; preds = %119
  br label %147

147:                                              ; preds = %146, %136
  %148 = phi ptr [ %145, %136 ], [ null, %146 ]
  %149 = call i64 @Abc_Isop6Cover(i64 noundef %128, i64 noundef %131, ptr noundef %20, i32 noundef %132, i64 noundef %133, ptr noundef %148)
  store i64 %149, ptr %23, align 8, !tbaa !3
  %150 = load i64, ptr %21, align 8, !tbaa !3
  %151 = load i64, ptr %22, align 8, !tbaa !3
  %152 = add i64 %150, %151
  %153 = load i64, ptr %23, align 8, !tbaa !3
  %154 = add i64 %152, %153
  %155 = load i64, ptr %12, align 8, !tbaa !3
  %156 = icmp uge i64 %154, %155
  br i1 %156, label %157, label %159

157:                                              ; preds = %147
  %158 = load i64, ptr %12, align 8, !tbaa !3
  store i64 %158, ptr %7, align 8
  store i32 1, ptr %25, align 4
  br label %193

159:                                              ; preds = %147
  %160 = load i64, ptr %20, align 8, !tbaa !3
  %161 = load i64, ptr %18, align 8, !tbaa !3
  %162 = load i32, ptr %24, align 4, !tbaa !10
  %163 = sext i32 %162 to i64
  %164 = getelementptr inbounds [6 x i64], ptr @s_Truths6Neg, i64 0, i64 %163
  %165 = load i64, ptr %164, align 8, !tbaa !3
  %166 = and i64 %161, %165
  %167 = or i64 %160, %166
  %168 = load i64, ptr %19, align 8, !tbaa !3
  %169 = load i32, ptr %24, align 4, !tbaa !10
  %170 = sext i32 %169 to i64
  %171 = getelementptr inbounds [6 x i64], ptr @s_Truths6, i64 0, i64 %170
  %172 = load i64, ptr %171, align 8, !tbaa !3
  %173 = and i64 %168, %172
  %174 = or i64 %167, %173
  %175 = load ptr, ptr %10, align 8, !tbaa !7
  store i64 %174, ptr %175, align 8, !tbaa !3
  %176 = load ptr, ptr %13, align 8, !tbaa !12
  %177 = load i64, ptr %21, align 8, !tbaa !3
  %178 = load i64, ptr %22, align 8, !tbaa !3
  %179 = load i32, ptr %24, align 4, !tbaa !10
  call void @Abc_IsopAddLits(ptr noundef %176, i64 noundef %177, i64 noundef %178, i32 noundef %179)
  %180 = load i64, ptr %21, align 8, !tbaa !3
  %181 = load i64, ptr %22, align 8, !tbaa !3
  %182 = add i64 %180, %181
  %183 = load i64, ptr %23, align 8, !tbaa !3
  %184 = add i64 %182, %183
  %185 = load i64, ptr %21, align 8, !tbaa !3
  %186 = call i32 @Abc_CostCubes(i64 noundef %185)
  %187 = sext i32 %186 to i64
  %188 = add i64 %184, %187
  %189 = load i64, ptr %22, align 8, !tbaa !3
  %190 = call i32 @Abc_CostCubes(i64 noundef %189)
  %191 = sext i32 %190 to i64
  %192 = add i64 %188, %191
  store i64 %192, ptr %7, align 8
  store i32 1, ptr %25, align 4
  br label %193

193:                                              ; preds = %159, %157, %117, %90, %42, %28
  call void @llvm.lifetime.end.p0(i64 4, ptr %24) #9
  call void @llvm.lifetime.end.p0(i64 8, ptr %23) #9
  call void @llvm.lifetime.end.p0(i64 8, ptr %22) #9
  call void @llvm.lifetime.end.p0(i64 8, ptr %21) #9
  call void @llvm.lifetime.end.p0(i64 8, ptr %20) #9
  call void @llvm.lifetime.end.p0(i64 8, ptr %19) #9
  call void @llvm.lifetime.end.p0(i64 8, ptr %18) #9
  call void @llvm.lifetime.end.p0(i64 8, ptr %17) #9
  call void @llvm.lifetime.end.p0(i64 8, ptr %16) #9
  call void @llvm.lifetime.end.p0(i64 8, ptr %15) #9
  call void @llvm.lifetime.end.p0(i64 8, ptr %14) #9
  %194 = load i64, ptr %7, align 8
  ret i64 %194
}