; Function Attrs: nofree nosync nounwind memory(readwrite, inaccessiblemem: none) uwtable
define i64 @Abc_Isop6Cover(i64 noundef %0, i64 noundef %1, ptr noundef writeonly captures(none) %2, i32 noundef %3, i64 noundef %4, ptr noundef %5) local_unnamed_addr #0 {
  %7 = alloca i64, align 8
  %8 = alloca i64, align 8
  %9 = alloca i64, align 8
  call void @llvm.lifetime.start.p0(i64 8, ptr nonnull %7) #20
  call void @llvm.lifetime.start.p0(i64 8, ptr nonnull %8) #20
  call void @llvm.lifetime.start.p0(i64 8, ptr nonnull %9) #20
  %10 = icmp eq i64 %0, 0
  br i1 %10, label %11, label %12

11:                                               ; preds = %6
  store i64 0, ptr %2, align 8, !tbaa !3
  br label %101

12:                                               ; preds = %6
  %13 = icmp eq i64 %1, -1
  br i1 %13, label %16, label %.preheader.preheader

.preheader.preheader:                             ; preds = %12
  %14 = zext i32 %3 to i64
  %smin = tail call i32 @llvm.smin.i32(i32 %3, i32 0)
  %15 = add i32 %smin, -1
  br label %.preheader

16:                                               ; preds = %12
  store i64 -1, ptr %2, align 8, !tbaa !3
  %.not83 = icmp eq ptr %5, null
  br i1 %.not83, label %101, label %17

17:                                               ; preds = %16
  store i32 0, ptr %5, align 4, !tbaa !7
  br label %101

.preheader:                                       ; preds = %.preheader.preheader, %29
  %indvars.iv = phi i64 [ %14, %.preheader.preheader ], [ %indvars.iv.next, %29 ]
  %indvars.iv.next = add nsw i64 %indvars.iv, -1
  %indvars = trunc i64 %indvars.iv.next to i32
  %18 = trunc nuw i64 %indvars.iv to i32
  %19 = icmp sgt i32 %18, 0
  br i1 %19, label %20, label %.preheader._crit_edge

.preheader._crit_edge:                            ; preds = %.preheader
  %.pre = shl nuw nsw i32 1, %15
  %.pre86 = zext nneg i32 %.pre to i64
  br label %split

20:                                               ; preds = %.preheader
  %21 = shl nuw i32 1, %indvars
  %22 = zext nneg i32 %21 to i64
  %23 = lshr i64 %0, %22
  %24 = and i64 %indvars.iv.next, 4294967295
  %25 = getelementptr inbounds nuw [6 x i64], ptr @s_Truths6Neg, i64 0, i64 %24
  %26 = load i64, ptr %25, align 8, !tbaa !3
  %27 = xor i64 %23, %0
  %28 = and i64 %26, %27
  %.not84 = icmp eq i64 %28, 0
  br i1 %.not84, label %29, label %split

29:                                               ; preds = %20
  %30 = lshr i64 %1, %22
  %31 = xor i64 %30, %1
  %32 = and i64 %26, %31
  %.not = icmp eq i64 %32, 0
  br i1 %.not, label %.preheader, label %split, !llvm.loop !9

split:                                            ; preds = %20, %29, %.preheader._crit_edge
  %.pre-phi87 = phi i64 [ %.pre86, %.preheader._crit_edge ], [ %22, %29 ], [ %22, %20 ]
  %.0.lcssa = phi i32 [ %15, %.preheader._crit_edge ], [ %indvars, %29 ], [ %indvars, %20 ]
  %33 = sext i32 %.0.lcssa to i64
  %34 = getelementptr inbounds [6 x i64], ptr @s_Truths6Neg, i64 0, i64 %33
  %35 = load i64, ptr %34, align 8, !tbaa !3
  %36 = and i64 %35, %0
  %37 = shl i64 %36, %.pre-phi87
  %38 = or i64 %37, %36
  %39 = getelementptr inbounds [6 x i64], ptr @s_Truths6, i64 0, i64 %33
  %40 = load i64, ptr %39, align 8, !tbaa !3
  %41 = and i64 %40, %0
  %42 = lshr i64 %41, %.pre-phi87
  %43 = or i64 %42, %41
  %44 = and i64 %35, %1
  %45 = shl i64 %44, %.pre-phi87
  %46 = or i64 %45, %44
  %47 = and i64 %40, %1
  %48 = lshr i64 %47, %.pre-phi87
  %49 = or i64 %48, %47
  %50 = xor i64 %49, -1
  %51 = and i64 %38, %50
  %52 = call i64 @Abc_Isop6Cover(i64 noundef %51, i64 noundef %46, ptr noundef nonnull %7, i32 noundef %.0.lcssa, i64 noundef %4, ptr noundef %5)
  %.not79 = icmp ult i64 %52, %4
  br i1 %.not79, label %53, label %101

53:                                               ; preds = %split
  %54 = xor i64 %46, -1
  %55 = and i64 %43, %54
  %.not80 = icmp eq ptr %5, null
  %56 = ashr i64 %52, 32
  %57 = getelementptr i32, ptr %5, i64 %56
  %58 = select i1 %.not80, ptr null, ptr %57
  %59 = call i64 @Abc_Isop6Cover(i64 noundef %55, i64 noundef %49, ptr noundef nonnull %8, i32 noundef %.0.lcssa, i64 noundef %4, ptr noundef %58)
  %60 = add i64 %59, %52
  %.not81 = icmp ult i64 %60, %4
  br i1 %.not81, label %61, label %101

61:                                               ; preds = %53
  %62 = load i64, ptr %7, align 8, !tbaa !3
  %63 = xor i64 %62, -1
  %64 = and i64 %38, %63
  %65 = load i64, ptr %8, align 8, !tbaa !3
  %66 = xor i64 %65, -1
  %67 = and i64 %43, %66
  %68 = or i64 %67, %64
  %69 = and i64 %49, %46
  %70 = ashr i64 %59, 32
  %71 = getelementptr inbounds i32, ptr %57, i64 %70
  %72 = select i1 %.not80, ptr null, ptr %71
  %73 = call i64 @Abc_Isop6Cover(i64 noundef %68, i64 noundef %69, ptr noundef nonnull %9, i32 noundef %.0.lcssa, i64 noundef %4, ptr noundef %72)
  %74 = add i64 %73, %60
  %.not82 = icmp ult i64 %74, %4
  br i1 %.not82, label %75, label %101

75:                                               ; preds = %61
  %76 = load i64, ptr %9, align 8, !tbaa !3
  %77 = and i64 %62, %35
  %78 = and i64 %65, %40
  %79 = or i64 %78, %77
  %80 = or i64 %79, %76
  store i64 %80, ptr %2, align 8, !tbaa !3
  br i1 %.not80, label %Abc_IsopAddLits.exit, label %81

81:                                               ; preds = %75
  %82 = lshr i64 %52, 32
  %83 = trunc nuw i64 %82 to i32
  %84 = lshr i64 %59, 32
  %85 = trunc nuw i64 %84 to i32
  %86 = icmp sgt i32 %83, 0
  br i1 %86, label %.lr.ph.i, label %.preheader.i

.lr.ph.i:                                         ; preds = %81
  %87 = shl nsw i32 %.0.lcssa, 1
  %88 = shl nuw i32 1, %87
  br label %92

.preheader.i:                                     ; preds = %92, %81
  %89 = icmp sgt i32 %85, 0
  br i1 %89, label %.lr.ph19.i, label %Abc_IsopAddLits.exit

.lr.ph19.i:                                       ; preds = %.preheader.i
  %90 = shl nsw i32 %.0.lcssa, 1
  %91 = shl nuw i32 2, %90
  br label %96

92:                                               ; preds = %92, %.lr.ph.i
  %indvars.iv.i = phi i64 [ 0, %.lr.ph.i ], [ %indvars.iv.next.i, %92 ]
  %93 = getelementptr inbounds nuw i32, ptr %5, i64 %indvars.iv.i
  %94 = load i32, ptr %93, align 4, !tbaa !7
  %95 = or i32 %94, %88
  store i32 %95, ptr %93, align 4, !tbaa !7
  %indvars.iv.next.i = add nuw nsw i64 %indvars.iv.i, 1
  %exitcond.not.i = icmp eq i64 %indvars.iv.next.i, %82
  br i1 %exitcond.not.i, label %.preheader.i, label %92, !llvm.loop !11

96:                                               ; preds = %96, %.lr.ph19.i
  %indvars.iv21.i = phi i64 [ 0, %.lr.ph19.i ], [ %indvars.iv.next22.i, %96 ]
  %gep.i = getelementptr i32, ptr %57, i64 %indvars.iv21.i
  %97 = load i32, ptr %gep.i, align 4, !tbaa !7
  %98 = or i32 %97, %91
  store i32 %98, ptr %gep.i, align 4, !tbaa !7
  %indvars.iv.next22.i = add nuw nsw i64 %indvars.iv21.i, 1
  %exitcond25.not.i = icmp eq i64 %indvars.iv.next22.i, %84
  br i1 %exitcond25.not.i, label %Abc_IsopAddLits.exit, label %96, !llvm.loop !12

Abc_IsopAddLits.exit:                             ; preds = %96, %75, %.preheader.i
  %99 = add nsw i64 %70, %56
  %100 = add i64 %99, %74
  br label %101

101:                                              ; preds = %16, %17, %61, %53, %split, %Abc_IsopAddLits.exit, %11
  %.069 = phi i64 [ 0, %11 ], [ %100, %Abc_IsopAddLits.exit ], [ %4, %split ], [ %4, %53 ], [ %4, %61 ], [ 4294967296, %17 ], [ 4294967296, %16 ]
  call void @llvm.lifetime.end.p0(i64 8, ptr nonnull %9) #20
  call void @llvm.lifetime.end.p0(i64 8, ptr nonnull %8) #20
  call void @llvm.lifetime.end.p0(i64 8, ptr nonnull %7) #20
  ret i64 %.069
}